target datalayout = "e-m:e-p270:32:32-p271:32:32-p272:64:64-i64:64-i128:128-f80:128-n8:16:32:64-S128"
target triple = "x86_64-pc-linux-gnu"

%struct._Py_SourceLocation = type { i32, i32, i32, i32 }
%struct._PyJumpTargetLabel = type { i32 }
%struct._PyCfgBuilder = type { ptr, ptr, ptr, %struct._PyJumpTargetLabel }
%struct._PyCfgBasicblock = type { ptr, %struct._PyJumpTargetLabel, ptr, ptr, ptr, i32, i32, i64, i32, i32, i8 }
%struct._PyCfgInstruction = type { i32, i32, %struct._Py_SourceLocation, ptr, ptr }

@PyExc_SystemError = external global ptr, align 8
@.str.4 = private unnamed_addr constant [22 x i8] c"jump with NULL target\00", align 1

; Function Attrs: nounwind uwtable
define internal ptr @next_nonempty_block(ptr noundef %0) #0 {
  %2 = alloca ptr, align 8
  store ptr %0, ptr %2, align 8, !tbaa !14
  br label %3

3:                                                ; preds = %13, %1
  %4 = load ptr, ptr %2, align 8, !tbaa !14
  %5 = icmp ne ptr %4, null
  br i1 %5, label %6, label %11

6:                                                ; preds = %3
  %7 = load ptr, ptr %2, align 8, !tbaa !14
  %8 = getelementptr inbounds nuw %struct._PyCfgBasicblock, ptr %7, i32 0, i32 5
  %9 = load i32, ptr %8, align 8, !tbaa !44
  %10 = icmp eq i32 %9, 0
  br label %11

11:                                               ; preds = %6, %3
  %12 = phi i1 [ false, %3 ], [ %10, %6 ]
  br i1 %12, label %13, label %17

13:                                               ; preds = %11
  %14 = load ptr, ptr %2, align 8, !tbaa !14
  %15 = getelementptr inbounds nuw %struct._PyCfgBasicblock, ptr %14, i32 0, i32 4
  %16 = load ptr, ptr %15, align 8, !tbaa !42
  store ptr %16, ptr %2, align 8, !tbaa !14
  br label %3, !llvm.loop !175

17:                                               ; preds = %11
  %18 = load ptr, ptr %2, align 8, !tbaa !14
  ret ptr %18
}

; Function Attrs: nounwind uwtable
define internal ptr @basicblock_last_instr(ptr noundef %0) #0 {
  %2 = alloca ptr, align 8
  %3 = alloca ptr, align 8
  store ptr %0, ptr %3, align 8, !tbaa !14
  %4 = load ptr, ptr %3, align 8, !tbaa !14
  %5 = getelementptr inbounds nuw %struct._PyCfgBasicblock, ptr %4, i32 0, i32 5
  %6 = load i32, ptr %5, align 8, !tbaa !44
  %7 = icmp sgt i32 %6, 0
  br i1 %7, label %8, label %18

8:                                                ; preds = %1
  %9 = load ptr, ptr %3, align 8, !tbaa !14
  %10 = getelementptr inbounds nuw %struct._PyCfgBasicblock, ptr %9, i32 0, i32 3
  %11 = load ptr, ptr %10, align 8, !tbaa !20
  %12 = load ptr, ptr %3, align 8, !tbaa !14
  %13 = getelementptr inbounds nuw %struct._PyCfgBasicblock, ptr %12, i32 0, i32 5
  %14 = load i32, ptr %13, align 8, !tbaa !44
  %15 = sub i32 %14, 1
  %16 = sext i32 %15 to i64
  %17 = getelementptr %struct._PyCfgInstruction, ptr %11, i64 %16
  store ptr %17, ptr %2, align 8
  br label %19

18:                                               ; preds = %1
  store ptr null, ptr %2, align 8
  br label %19

19:                                               ; preds = %18, %8
  %20 = load ptr, ptr %2, align 8
  ret ptr %20
}

; Function Attrs: nounwind uwtable
define internal i32 @remove_redundant_jumps(ptr noundef %0) #0 {
  %2 = alloca i32, align 4
  %3 = alloca ptr, align 8
  %4 = alloca i32, align 4
  %5 = alloca ptr, align 8
  %6 = alloca i32, align 4
  %7 = alloca ptr, align 8
  %8 = alloca ptr, align 8
  %9 = alloca ptr, align 8
  %10 = alloca ptr, align 8
  store ptr %0, ptr %3, align 8, !tbaa !4
  call void @llvm.lifetime.start.p0(i64 4, ptr %4) #7
  store i32 0, ptr %4, align 4, !tbaa !19
  call void @llvm.lifetime.start.p0(i64 8, ptr %5) #7
  %11 = load ptr, ptr %3, align 8, !tbaa !4
  %12 = getelementptr inbounds nuw %struct._PyCfgBuilder, ptr %11, i32 0, i32 0
  %13 = load ptr, ptr %12, align 8, !tbaa !15
  store ptr %13, ptr %5, align 8, !tbaa !14
  br label %14

14:                                               ; preds = %85, %1
  %15 = load ptr, ptr %5, align 8, !tbaa !14
  %16 = icmp ne ptr %15, null
  br i1 %16, label %18, label %17

17:                                               ; preds = %14
  store i32 2, ptr %6, align 4
  br label %89

18:                                               ; preds = %14
  call void @llvm.lifetime.start.p0(i64 8, ptr %7) #7
  %19 = load ptr, ptr %5, align 8, !tbaa !14
  %20 = call ptr @basicblock_last_instr(ptr noundef %19)
  store ptr %20, ptr %7, align 8, !tbaa !29
  %21 = load ptr, ptr %7, align 8, !tbaa !29
  %22 = icmp eq ptr %21, null
  br i1 %22, label %23, label %24

23:                                               ; preds = %18
  store i32 4, ptr %6, align 4
  br label %82

24:                                               ; preds = %18
  %25 = load ptr, ptr %7, align 8, !tbaa !29
  %26 = getelementptr inbounds nuw %struct._PyCfgInstruction, ptr %25, i32 0, i32 0
  %27 = load i32, ptr %26, align 8, !tbaa !30
  %28 = icmp eq i32 %27, 256
  br i1 %28, label %49, label %29

29:                                               ; preds = %24
  %30 = load ptr, ptr %7, align 8, !tbaa !29
  %31 = getelementptr inbounds nuw %struct._PyCfgInstruction, ptr %30, i32 0, i32 0
  %32 = load i32, ptr %31, align 8, !tbaa !30
  %33 = icmp eq i32 %32, 259
  br i1 %33, label %49, label %34

34:                                               ; preds = %29
  %35 = load ptr, ptr %7, align 8, !tbaa !29
  %36 = getelementptr inbounds nuw %struct._PyCfgInstruction, ptr %35, i32 0, i32 0
  %37 = load i32, ptr %36, align 8, !tbaa !30
  %38 = icmp eq i32 %37, 76
  br i1 %38, label %49, label %39

39:                                               ; preds = %34
  %40 = load ptr, ptr %7, align 8, !tbaa !29
  %41 = getelementptr inbounds nuw %struct._PyCfgInstruction, ptr %40, i32 0, i32 0
  %42 = load i32, ptr %41, align 8, !tbaa !30
  %43 = icmp eq i32 %42, 74
  br i1 %43, label %49, label %44

44:                                               ; preds = %39
  %45 = load ptr, ptr %7, align 8, !tbaa !29
  %46 = getelementptr inbounds nuw %struct._PyCfgInstruction, ptr %45, i32 0, i32 0
  %47 = load i32, ptr %46, align 8, !tbaa !30
  %48 = icmp eq i32 %47, 75
  br i1 %48, label %49, label %81

49:                                               ; preds = %44, %39, %34, %29, %24
  call void @llvm.lifetime.start.p0(i64 8, ptr %8) #7
  %50 = load ptr, ptr %7, align 8, !tbaa !29
  %51 = getelementptr inbounds nuw %struct._PyCfgInstruction, ptr %50, i32 0, i32 3
  %52 = load ptr, ptr %51, align 8, !tbaa !34
  %53 = call ptr @next_nonempty_block(ptr noundef %52)
  store ptr %53, ptr %8, align 8, !tbaa !14
  %54 = load ptr, ptr %8, align 8, !tbaa !14
  %55 = icmp eq ptr %54, null
  br i1 %55, label %56, label %58

56:                                               ; preds = %49
  %57 = load ptr, ptr @PyExc_SystemError, align 8, !tbaa !36
  call void @PyErr_SetString(ptr noundef %57, ptr noundef @.str.4)
  store i32 -1, ptr %2, align 4
  store i32 1, ptr %6, align 4
  br label %78

58:                                               ; preds = %49
  call void @llvm.lifetime.start.p0(i64 8, ptr %9) #7
  %59 = load ptr, ptr %5, align 8, !tbaa !14
  %60 = getelementptr inbounds nuw %struct._PyCfgBasicblock, ptr %59, i32 0, i32 4
  %61 = load ptr, ptr %60, align 8, !tbaa !42
  %62 = call ptr @next_nonempty_block(ptr noundef %61)
  store ptr %62, ptr %9, align 8, !tbaa !14
  %63 = load ptr, ptr %8, align 8, !tbaa !14
  %64 = load ptr, ptr %9, align 8, !tbaa !14
  %65 = icmp eq ptr %63, %64
  br i1 %65, label %66, label %77

66:                                               ; preds = %58
  %67 = load i32, ptr %4, align 4, !tbaa !19
  %68 = add i32 %67, 1
  store i32 %68, ptr %4, align 4, !tbaa !19
  br label %69

69:                                               ; preds = %66
  call void @llvm.lifetime.start.p0(i64 8, ptr %10) #7
  %70 = load ptr, ptr %7, align 8, !tbaa !29
  store ptr %70, ptr %10, align 8, !tbaa !29
  %71 = load ptr, ptr %10, align 8, !tbaa !29
  %72 = getelementptr inbounds nuw %struct._PyCfgInstruction, ptr %71, i32 0, i32 0
  store i32 28, ptr %72, align 8, !tbaa !30
  %73 = load ptr, ptr %10, align 8, !tbaa !29
  %74 = getelementptr inbounds nuw %struct._PyCfgInstruction, ptr %73, i32 0, i32 1
  store i32 0, ptr %74, align 4, !tbaa !33
  call void @llvm.lifetime.end.p0(i64 8, ptr %10) #7
  br label %75

75:                                               ; preds = %69
  br label %76

76:                                               ; preds = %75
  br label %77

77:                                               ; preds = %76, %58
  call void @llvm.lifetime.end.p0(i64 8, ptr %9) #7
  store i32 0, ptr %6, align 4
  br label %78

78:                                               ; preds = %77, %56
  call void @llvm.lifetime.end.p0(i64 8, ptr %8) #7
  %79 = load i32, ptr %6, align 4
  switch i32 %79, label %82 [
    i32 0, label %80
  ]

80:                                               ; preds = %78
  br label %81

81:                                               ; preds = %80, %44
  store i32 0, ptr %6, align 4
  br label %82

82:                                               ; preds = %81, %78, %23
  call void @llvm.lifetime.end.p0(i64 8, ptr %7) #7
  %83 = load i32, ptr %6, align 4
  switch i32 %83, label %89 [
    i32 0, label %84
    i32 4, label %85
  ]

84:                                               ; preds = %82
  br label %85

85:                                               ; preds = %84, %82
  %86 = load ptr, ptr %5, align 8, !tbaa !14
  %87 = getelementptr inbounds nuw %struct._PyCfgBasicblock, ptr %86, i32 0, i32 4
  %88 = load ptr, ptr %87, align 8, !tbaa !42
  store ptr %88, ptr %5, align 8, !tbaa !14
  br label %14, !llvm.loop !177

89:                                               ; preds = %82, %17
  call void @llvm.lifetime.end.p0(i64 8, ptr %5) #7
  %90 = load i32, ptr %6, align 4
  switch i32 %90, label %93 [
    i32 2, label %91
  ]

91:                                               ; preds = %89
  %92 = load i32, ptr %4, align 4, !tbaa !19
  store i32 %92, ptr %2, align 4
  store i32 1, ptr %6, align 4
  br label %93

93:                                               ; preds = %91, %89
  call void @llvm.lifetime.end.p0(i64 4, ptr %4) #7
  %94 = load i32, ptr %2, align 4
  ret i32 %94
}

; Function Attrs: nounwind uwtable
define internal i32 @remove_redundant_nops_and_jumps(ptr noundef %0) #0 {
  %2 = alloca i32, align 4
  %3 = alloca ptr, align 8
  %4 = alloca i32, align 4
  %5 = alloca i32, align 4
  %6 = alloca i32, align 4
  store ptr %0, ptr %3, align 8, !tbaa !4
  call void @llvm.lifetime.start.p0(i64 4, ptr %4) #7
  call void @llvm.lifetime.start.p0(i64 4, ptr %5) #7
  br label %7

7:                                                ; preds = %20, %1
  %8 = load ptr, ptr %3, align 8, !tbaa !4
  %9 = call i32 @remove_redundant_nops(ptr noundef %8)
  store i32 %9, ptr %4, align 4, !tbaa !19
  %10 = load i32, ptr %4, align 4, !tbaa !19
  %11 = icmp eq i32 %10, -1
  br i1 %11, label %12, label %13

12:                                               ; preds = %7
  store i32 -1, ptr %2, align 4
  store i32 1, ptr %6, align 4
  br label %26

13:                                               ; preds = %7
  %14 = load ptr, ptr %3, align 8, !tbaa !4
  %15 = call i32 @remove_redundant_jumps(ptr noundef %14)
  store i32 %15, ptr %5, align 4, !tbaa !19
  %16 = load i32, ptr %5, align 4, !tbaa !19
  %17 = icmp eq i32 %16, -1
  br i1 %17, label %18, label %19

18:                                               ; preds = %13
  store i32 -1, ptr %2, align 4
  store i32 1, ptr %6, align 4
  br label %26

19:                                               ; preds = %13
  br label %20

20:                                               ; preds = %19
  %21 = load i32, ptr %4, align 4, !tbaa !19
  %22 = load i32, ptr %5, align 4, !tbaa !19
  %23 = add i32 %21, %22
  %24 = icmp sgt i32 %23, 0
  br i1 %24, label %7, label %25, !llvm.loop !150

25:                                               ; preds = %20
  store i32 0, ptr %2, align 4
  store i32 1, ptr %6, align 4
  br label %26

26:                                               ; preds = %25, %18, %12
  call void @llvm.lifetime.end.p0(i64 4, ptr %5) #7
  call void @llvm.lifetime.end.p0(i64 4, ptr %4) #7
  %27 = load i32, ptr %2, align 4
  ret i32 %27
}