; Function Attrs: nounwind uwtable
define internal fastcc range(i32 -1, 1) i32 @remove_redundant_nops_and_jumps(ptr noundef readonly captures(none) %0) unnamed_addr #0 {
  br label %2

2:                                                ; preds = %remove_redundant_jumps.exit.thread9, %1
  %3 = tail call fastcc i32 @remove_redundant_nops(ptr noundef %0)
  %4 = icmp eq i32 %3, -1
  br i1 %4, label %.loopexit, label %5

5:                                                ; preds = %2
  %.03063.i = load ptr, ptr %0, align 8, !tbaa !23
  %.not64.i = icmp eq ptr %.03063.i, null
  br i1 %.not64.i, label %remove_redundant_jumps.exit.thread9, label %.lr.ph.i

.lr.ph.i:                                         ; preds = %5, %basicblock_last_instr.exit.thread.i
  %.03066.i = phi ptr [ %.030.i, %basicblock_last_instr.exit.thread.i ], [ %.03063.i, %5 ]
  %.02465.i = phi i32 [ %.226.ph.i, %basicblock_last_instr.exit.thread.i ], [ 0, %5 ]
  %6 = getelementptr inbounds nuw i8, ptr %.03066.i, i64 40
  %7 = load i32, ptr %6, align 8, !tbaa !25
  %8 = icmp sgt i32 %7, 0
  br i1 %8, label %basicblock_last_instr.exit.i, label %basicblock_last_instr.exit.thread.i

basicblock_last_instr.exit.i:                     ; preds = %.lr.ph.i
  %9 = getelementptr inbounds nuw i8, ptr %.03066.i, i64 24
  %10 = load ptr, ptr %9, align 8, !tbaa !20
  %11 = zext nneg i32 %7 to i64
  %12 = getelementptr %struct._PyCfgInstruction, ptr %10, i64 %11
  %13 = getelementptr i8, ptr %12, i64 -40
  %14 = icmp eq ptr %13, null
  br i1 %14, label %basicblock_last_instr.exit.thread.i, label %15

15:                                               ; preds = %basicblock_last_instr.exit.i
  %16 = load i32, ptr %13, align 8, !tbaa !26
  switch i32 %16, label %basicblock_last_instr.exit.thread.i [
    i32 256, label %17
    i32 259, label %17
    i32 76, label %17
    i32 74, label %17
    i32 75, label %17
  ]

17:                                               ; preds = %15, %15, %15, %15, %15
  %18 = getelementptr i8, ptr %12, i64 -16
  %19 = load ptr, ptr %18, align 8, !tbaa !36
  %.not4.i.i = icmp eq ptr %19, null
  br i1 %.not4.i.i, label %remove_redundant_jumps.exit.thread, label %.lr.ph.i.i

.lr.ph.i.i:                                       ; preds = %17, %23
  %.05.i.i = phi ptr [ %25, %23 ], [ %19, %17 ]
  %20 = getelementptr inbounds nuw i8, ptr %.05.i.i, i64 40
  %21 = load i32, ptr %20, align 8, !tbaa !25
  %22 = icmp eq i32 %21, 0
  br i1 %22, label %23, label %next_nonempty_block.exit.i

23:                                               ; preds = %.lr.ph.i.i
  %24 = getelementptr inbounds nuw i8, ptr %.05.i.i, i64 32
  %25 = load ptr, ptr %24, align 8, !tbaa !34
  %.not.i.i = icmp eq ptr %25, null
  br i1 %.not.i.i, label %remove_redundant_jumps.exit.thread, label %.lr.ph.i.i, !llvm.loop !74

next_nonempty_block.exit.i:                       ; preds = %.lr.ph.i.i
  %26 = getelementptr inbounds nuw i8, ptr %.03066.i, i64 32
  %27 = load ptr, ptr %26, align 8, !tbaa !34
  %.not4.i39.i = icmp eq ptr %27, null
  br i1 %.not4.i39.i, label %next_nonempty_block.exit44.i, label %.lr.ph.i40.i

.lr.ph.i40.i:                                     ; preds = %next_nonempty_block.exit.i, %31
  %.05.i41.i = phi ptr [ %33, %31 ], [ %27, %next_nonempty_block.exit.i ]
  %28 = getelementptr inbounds nuw i8, ptr %.05.i41.i, i64 40
  %29 = load i32, ptr %28, align 8, !tbaa !25
  %30 = icmp eq i32 %29, 0
  br i1 %30, label %31, label %next_nonempty_block.exit44.i

31:                                               ; preds = %.lr.ph.i40.i
  %32 = getelementptr inbounds nuw i8, ptr %.05.i41.i, i64 32
  %33 = load ptr, ptr %32, align 8, !tbaa !34
  %.not.i43.i = icmp eq ptr %33, null
  br i1 %.not.i43.i, label %next_nonempty_block.exit44.i, label %.lr.ph.i40.i, !llvm.loop !74

next_nonempty_block.exit44.i:                     ; preds = %31, %.lr.ph.i40.i, %next_nonempty_block.exit.i
  %.0.lcssa.i42.i = phi ptr [ null, %next_nonempty_block.exit.i ], [ null, %31 ], [ %.05.i41.i, %.lr.ph.i40.i ]
  %34 = icmp eq ptr %.05.i.i, %.0.lcssa.i42.i
  br i1 %34, label %35, label %basicblock_last_instr.exit.thread.i

35:                                               ; preds = %next_nonempty_block.exit44.i
  %36 = add i32 %.02465.i, 1
  store i32 28, ptr %13, align 8, !tbaa !26
  %37 = getelementptr i8, ptr %12, i64 -36
  store i32 0, ptr %37, align 4, !tbaa !35
  br label %basicblock_last_instr.exit.thread.i

remove_redundant_jumps.exit.thread:               ; preds = %17, %23
  %38 = load ptr, ptr @PyExc_SystemError, align 8, !tbaa !41
  tail call void @PyErr_SetString(ptr noundef %38, ptr noundef nonnull @.str.4) #8
  br label %.loopexit

basicblock_last_instr.exit.thread.i:              ; preds = %35, %next_nonempty_block.exit44.i, %15, %basicblock_last_instr.exit.i, %.lr.ph.i
  %.226.ph.i = phi i32 [ %.02465.i, %15 ], [ %.02465.i, %basicblock_last_instr.exit.i ], [ %.02465.i, %.lr.ph.i ], [ %.02465.i, %next_nonempty_block.exit44.i ], [ %36, %35 ]
  %39 = getelementptr inbounds nuw i8, ptr %.03066.i, i64 32
  %.030.i = load ptr, ptr %39, align 8, !tbaa !23
  %.not.i = icmp eq ptr %.030.i, null
  br i1 %.not.i, label %remove_redundant_jumps.exit, label %.lr.ph.i, !llvm.loop !176

remove_redundant_jumps.exit:                      ; preds = %basicblock_last_instr.exit.thread.i
  %40 = icmp eq i32 %.226.ph.i, -1
  br i1 %40, label %.loopexit, label %remove_redundant_jumps.exit.thread9

remove_redundant_jumps.exit.thread9:              ; preds = %5, %remove_redundant_jumps.exit
  %spec.select.i11 = phi i32 [ %.226.ph.i, %remove_redundant_jumps.exit ], [ 0, %5 ]
  %41 = add i32 %spec.select.i11, %3
  %42 = icmp sgt i32 %41, 0
  br i1 %42, label %2, label %.loopexit, !llvm.loop !177

.loopexit:                                        ; preds = %remove_redundant_jumps.exit.thread9, %remove_redundant_jumps.exit, %2, %remove_redundant_jumps.exit.thread
  %.0 = phi i32 [ -1, %remove_redundant_jumps.exit.thread ], [ 0, %remove_redundant_jumps.exit.thread9 ], [ -1, %remove_redundant_jumps.exit ], [ -1, %2 ]
  ret i32 %.0
}